target datalayout = "e-m:e-p270:32:32-p271:32:32-p272:64:64-i64:64-i128:128-f80:128-n8:16:32:64-S128"
target triple = "x86_64-pc-linux-gnu"

%struct.SDL_AudioQueue = type { ptr, ptr, ptr, i64, i64, %struct.SDL_MemoryPool, %struct.SDL_MemoryPool }
%struct.SDL_MemoryPool = type { ptr, i64, i64, i64 }
%struct.SDL_AudioTrack = type { %struct.SDL_AudioSpec, ptr, i8, ptr, ptr, ptr, ptr, i64, i64, i64, [8 x i32] }
%struct.SDL_AudioSpec = type { i32, i32, i32 }

; Function Attrs: nounwind uwtable
define internal void @FlushAudioTrack(ptr noundef %0) #0 {
  %2 = alloca ptr, align 8
  store ptr %0, ptr %2, align 8
  %3 = load ptr, ptr %2, align 8
  %4 = getelementptr inbounds nuw %struct.SDL_AudioTrack, ptr %3, i32 0, i32 2
  store i8 1, ptr %4, align 8
  ret void
}

; Function Attrs: nounwind uwtable
define hidden void @SDL_FlushAudioQueue(ptr noundef %0) #0 {
  %2 = alloca ptr, align 8
  %3 = alloca ptr, align 8
  store ptr %0, ptr %2, align 8
  call void @llvm.lifetime.start.p0(i64 8, ptr %3) #6
  %4 = load ptr, ptr %2, align 8
  %5 = getelementptr inbounds nuw %struct.SDL_AudioQueue, ptr %4, i32 0, i32 1
  %6 = load ptr, ptr %5, align 8
  store ptr %6, ptr %3, align 8
  %7 = load ptr, ptr %3, align 8
  %8 = icmp ne ptr %7, null
  br i1 %8, label %9, label %11

9:                                                ; preds = %1
  %10 = load ptr, ptr %3, align 8
  call void @FlushAudioTrack(ptr noundef %10)
  br label %11

11:                                               ; preds = %9, %1
  call void @llvm.lifetime.end.p0(i64 8, ptr %3) #6
  ret void
}